Certificate:
    Data:
        Version: 3 (0x2)
        Serial Number: 0 (0x0)
        Signature Algorithm: sha256WithRSAEncryption
        Issuer: C=US, ST=Michigan, L=GrandRapids, O=observIQ, OU=iris, CN=iris-ca
        Validity
            Not Before: Apr 14 22:44:49 2022 GMT
            Not After : Apr  8 22:44:49 2047 GMT
        Subject: C=US, ST=Michigan, O=observIQ, OU=iris, CN=localhost
        Subject Public Key Info:
            Public Key Algorithm: rsaEncryption
                RSA Public-Key: (4096 bit)
                Modulus:
                    00:a0:55:39:aa:6b:93:00:43:1f:94:35:d4:21:e5:
                    30:df:79:5e:9a:ce:8a:43:1f:21:73:27:95:6f:17:
                    e2:fe:7d:24:34:64:11:10:6d:32:4e:53:9c:27:a2:
                    d8:54:0a:f9:ff:90:bc:2c:52:aa:5f:03:91:98:cc:
                    5b:c3:a9:50:23:d8:1d:18:69:76:df:f5:a6:47:b4:
                    b1:85:79:e4:da:7d:f0:d0:25:08:11:24:e6:13:23:
                    b7:88:19:be:8b:b8:7b:34:45:66:54:cd:65:a8:87:
                    9b:c1:f2:f1:d0:6d:f4:cb:cc:2b:db:82:45:53:0f:
                    c8:9f:ee:fc:c8:a7:c4:bc:c0:4d:1d:42:ce:6c:e4:
                    a1:e0:25:62:57:28:ca:b3:ad:87:4c:fb:e3:d3:fc:
                    84:a4:c8:17:28:c9:5f:1a:b8:87:b1:9c:94:c8:21:
                    41:1c:01:1f:db:80:ae:76:d8:7c:ba:5a:39:94:37:
                    47:c8:83:b7:33:f6:81:b1:b3:34:a4:13:6a:b0:f3:
                    5a:35:1e:58:55:f5:05:8b:de:e8:79:06:7b:8d:08:
                    24:d7:63:1b:26:f9:61:8f:cf:ff:60:a5:91:3e:ff:
                    29:f0:96:17:61:a0:50:fd:b3:dc:ae:99:ea:90:da:
                    f5:57:38:89:ba:ba:73:79:05:70:b7:78:e8:03:93:
                    ec:39:de:84:e0:54:f8:1c:81:3e:6c:2f:14:36:d5:
                    97:68:1a:37:c7:38:b7:5c:00:a0:4e:9c:de:54:5b:
                    ad:ed:8b:c3:b1:9b:82:0b:50:07:3e:ad:ad:43:5f:
                    a3:31:50:6d:6e:b1:28:05:eb:9c:70:ff:b9:35:98:
                    26:e6:fd:44:7a:a5:16:cc:55:cd:f6:45:b1:27:da:
                    a5:6e:be:92:ca:45:2d:69:a4:60:0a:53:44:ec:71:
                    0f:0f:fd:6a:a8:50:2b:c0:40:48:69:88:71:a3:ea:
                    e3:e5:3b:0a:dd:62:76:4c:d6:d1:8f:da:59:a5:8b:
                    3a:e7:0e:da:0a:a6:c5:c1:2e:f7:ff:4d:4e:3b:2e:
                    02:cd:4f:13:3d:86:67:ff:46:7f:aa:45:0b:ae:eb:
                    00:b7:dc:67:1c:93:4b:18:5e:b8:eb:4b:f4:d0:4b:
                    c3:05:e8:ea:cf:af:74:31:0f:58:04:0e:b6:8d:6d:
                    5f:35:56:75:90:63:5a:b9:73:04:1a:d5:17:9b:fb:
                    b3:e8:75:c9:da:64:2a:8a:fe:05:30:fc:56:d3:16:
                    4e:c6:b6:30:4a:8b:2d:4f:53:e0:76:f4:5c:4f:e2:
                    df:a0:bd:b1:39:25:29:50:03:4e:7f:5d:1c:a1:bd:
                    0a:7c:a9:3d:4e:e2:82:c8:9d:a4:0d:a4:00:3a:44:
                    df:f2:0f
                Exponent: 65537 (0x10001)
        X509v3 extensions:
            X509v3 Basic Constraints: 
                CA:FALSE
            Netscape Comment: 
                generated by github.com/observiq/bindplane
            X509v3 Subject Key Identifier: 
                E5:79:09:14:45:F7:1E:0E:FB:C5:83:53:CD:C1:E8:97:F3:44:0A:94
            X509v3 Authority Key Identifier: 
                keyid:D8:67:0E:37:C3:88:8A:7C:A6:E0:45:E8:F3:41:4A:39:95:9E:8A:B7

            X509v3 Subject Alternative Name: 
                DNS:localhost, DNS:iris.iris-dev.svc.cluster.local
    Signature Algorithm: sha256WithRSAEncryption
         36:c1:f8:e0:56:ff:d8:af:9a:03:33:3e:ba:7c:8d:94:42:07:
         b1:44:2c:84:54:a6:ea:eb:fb:d4:67:4f:1a:c1:d2:8a:30:f3:
         64:d7:cb:d2:3d:f7:83:1c:4b:03:b3:3d:6d:4f:c1:05:50:21:
         1d:8a:c7:e1:0a:1c:d7:3b:4e:eb:4f:64:58:fc:ac:ad:6f:49:
         2d:66:04:27:7f:b7:4d:68:04:d4:64:0e:8a:25:d8:14:4f:e9:
         61:b1:82:49:2a:49:35:48:12:66:9b:3d:59:bf:ec:0e:47:47:
         4a:50:97:a6:f8:b4:37:ee:e7:40:ca:5b:d6:6c:be:08:aa:8b:
         13:c6:75:77:73:96:74:41:c5:df:a2:f0:de:d8:fc:b3:2d:24:
         3d:3c:ba:f3:07:88:90:49:2a:11:c5:b5:b9:ab:9c:96:b9:3e:
         ab:a7:18:c4:7b:df:1d:b1:fe:a4:9f:14:a7:05:19:02:8d:6a:
         2d:1c:22:6e:86:7a:4c:de:ac:f1:41:12:2d:39:90:7f:12:77:
         1c:2f:6e:a4:f1:7f:80:bf:18:02:b0:c6:89:24:b4:c8:36:4f:
         e7:a9:80:78:eb:f6:d8:0a:43:45:85:b9:78:24:66:6c:84:51:
         65:d3:9f:5f:9b:78:6f:0b:a3:1d:39:92:75:cf:32:53:50:6d:
         5e:ee:72:12:1b:05:b1:b8:3f:ec:f4:eb:bc:e1:1b:33:76:52:
         de:44:5a:98:6f:b1:c5:73:a1:01:e8:6a:89:14:bb:b0:54:b4:
         ee:d6:ab:58:d7:7d:e5:fd:46:9a:3a:a8:29:e7:f9:ac:77:2b:
         f0:05:0a:5d:f8:18:4b:ea:71:12:59:f5:e3:42:53:dd:c9:b8:
         cd:19:1b:91:f8:55:af:a3:7e:9b:d3:bb:f4:24:f7:5a:40:1a:
         21:94:d5:98:80:66:5a:21:e7:c5:b4:d7:d9:a3:11:45:9a:db:
         91:43:f5:90:2d:54:3d:01:78:77:4d:b3:f4:74:cc:d7:5b:07:
         93:bd:76:eb:2c:fd:a4:d2:c9:f1:b7:97:35:df:ae:f4:de:b7:
         86:d4:c4:fc:73:58:86:ea:97:2c:4f:bf:49:9d:12:aa:5c:42:
         18:67:ca:4f:29:a2:5e:0f:f3:59:ce:9c:38:38:73:00:c0:71:
         c8:62:d6:53:15:53:2a:3f:60:91:6f:9c:61:92:d1:1c:b2:f9:
         fe:77:db:b7:3a:32:aa:d5:e9:cc:9f:51:2a:2b:5f:54:6c:0e:
         54:bd:ef:d5:65:99:cc:9f:44:51:da:28:d0:86:5c:0a:58:1d:
         5c:40:a3:52:16:df:d3:40:3a:74:ce:39:4b:d9:5e:d4:b1:1c:
         ff:a7:dd:39:c0:ed:93:a9
-----BEGIN CERTIFICATE-----
MIIF9zCCA9+gAwIBAgIBADANBgkqhkiG9w0BAQsFADBqMQswCQYDVQQGEwJVUzER
MA8GA1UECAwITWljaGlnYW4xFDASBgNVBAcMC0dyYW5kUmFwaWRzMREwDwYDVQQK
DAhvYnNlcnZJUTENMAsGA1UECwwEaXJpczEQMA4GA1UEAwwHaXJpcy1jYTAeFw0y
MjA0MTQyMjQ0NDlaFw00NzA0MDgyMjQ0NDlaMFYxCzAJBgNVBAYTAlVTMREwDwYD
VQQIDAhNaWNoaWdhbjERMA8GA1UECgwIb2JzZXJ2SVExDTALBgNVBAsMBGlyaXMx
EjAQBgNVBAMMCWxvY2FsaG9zdDCCAiIwDQYJKoZIhvcNAQEBBQADggIPADCCAgoC
ggIBAKBVOaprkwBDH5Q11CHlMN95XprOikMfIXMnlW8X4v59JDRkERBtMk5TnCei
2FQK+f+QvCxSql8DkZjMW8OpUCPYHRhpdt/1pke0sYV55Np98NAlCBEk5hMjt4gZ
vou4ezRFZlTNZaiHm8Hy8dBt9MvMK9uCRVMPyJ/u/MinxLzATR1CzmzkoeAlYlco
yrOth0z749P8hKTIFyjJXxq4h7GclMghQRwBH9uArnbYfLpaOZQ3R8iDtzP2gbGz
NKQTarDzWjUeWFX1BYve6HkGe40IJNdjGyb5YY/P/2ClkT7/KfCWF2GgUP2z3K6Z
6pDa9Vc4ibq6c3kFcLd46AOT7DnehOBU+ByBPmwvFDbVl2gaN8c4t1wAoE6c3lRb
re2Lw7GbggtQBz6trUNfozFQbW6xKAXrnHD/uTWYJub9RHqlFsxVzfZFsSfapW6+
kspFLWmkYApTROxxDw/9aqhQK8BASGmIcaPq4+U7Ct1idkzW0Y/aWaWLOucO2gqm
xcEu9/9NTjsuAs1PEz2GZ/9Gf6pFC67rALfcZxyTSxheuOtL9NBLwwXo6s+vdDEP
WAQOto1tXzVWdZBjWrlzBBrVF5v7s+h1ydpkKor+BTD8VtMWTsa2MEqLLU9T4Hb0
XE/i36C9sTklKVADTn9dHKG9CnypPU7igsidpA2kADpE3/IPAgMBAAGjgbswgbgw
CQYDVR0TBAIwADA0BglghkgBhvhCAQ0EJxYlZ2VuZXJhdGVkIGJ5IGdpdGh1Yi5j
b20vb2JzZXJ2aXEvaXJpczAdBgNVHQ4EFgQU5XkJFEX3Hg77xYNTzcHol/NECpQw
HwYDVR0jBBgwFoAU2GcON8OIinym4EXo80FKOZWeircwNQYDVR0RBC4wLIIJbG9j
YWxob3N0gh9pcmlzLmlyaXMtZGV2LnN2Yy5jbHVzdGVyLmxvY2FsMA0GCSqGSIb3
DQEBCwUAA4ICAQA2wfjgVv/Yr5oDMz66fI2UQgexRCyEVKbq6/vUZ08awdKKMPNk
18vSPfeDHEsDsz1tT8EFUCEdisfhChzXO07rT2RY/Kytb0ktZgQnf7dNaATUZA6K
JdgUT+lhsYJJKkk1SBJmmz1Zv+wOR0dKUJem+LQ37udAylvWbL4IqosTxnV3c5Z0
QcXfovDe2PyzLSQ9PLrzB4iQSSoRxbW5q5yWuT6rpxjEe98dsf6knxSnBRkCjWot
HCJuhnpM3qzxQRItOZB/EnccL26k8X+AvxgCsMaJJLTINk/nqYB46/bYCkNFhbl4
JGZshFFl059fm3hvC6MdOZJ1zzJTUG1e7nISGwWxuD/s9Ou84RszdlLeRFqYb7HF
c6EB6GqJFLuwVLTu1qtY133l/UaaOqgp5/msdyvwBQpd+BhL6nESWfXjQlPdybjN
GRuR+FWvo36b07v0JPdaQBohlNWYgGZaIefFtNfZoxFFmtuRQ/WQLVQ9AXh3TbP0
dMzXWweTvXbrLP2k0snxt5c136703reG1MT8c1iG6pcsT79JnRKqXEIYZ8pPKaJe
D/NZzpw4OHMAwHHIYtZTFVMqP2CRb5xhktEcsvn+d9u3OjKq1enMn1EqK19UbA5U
ve/VZZnMn0RR2ijQhlwKWB1cQKNSFt/TQDp0zjlL2V7UsRz/p905wO2TqQ==
-----END CERTIFICATE-----
-----BEGIN CERTIFICATE-----
MIIFtzCCA5+gAwIBAgIUYqEwMFBXEmtjFc00rMmIuDXcPg0wDQYJKoZIhvcNAQEL
BQAwajELMAkGA1UEBhMCVVMxETAPBgNVBAgMCE1pY2hpZ2FuMRQwEgYDVQQHDAtH
cmFuZFJhcGlkczERMA8GA1UECgwIb2JzZXJ2SVExDTALBgNVBAsMBGlyaXMxEDAO
BgNVBAMMB2lyaXMtY2EwIBcNMjIwNDE0MjI0NDQ4WhgPMjA1MjA0MDYyMjQ0NDha
MGoxCzAJBgNVBAYTAlVTMREwDwYDVQQIDAhNaWNoaWdhbjEUMBIGA1UEBwwLR3Jh
bmRSYXBpZHMxETAPBgNVBAoMCG9ic2VydklRMQ0wCwYDVQQLDARpcmlzMRAwDgYD
VQQDDAdpcmlzLWNhMIICIjANBgkqhkiG9w0BAQEFAAOCAg8AMIICCgKCAgEAsyD6
j4CW2Zz1USUpdL+01bSywlP2YBlDIrGDPCHQdmdMPEW6TRExhnVi7jVoSo4t6SNR
e1W/oPtp5KnYkOPvPdQ9WvNR4j46F26LyeqGFN93mrocl3cwJWi/dvSBM3KoqbJV
0DCVZfjh9sn9HvwHH1Wc59q+tUCKk8aIxwzqq0FADAB915+F1G8IkSoMJkNd61Ct
y8NSuw7lmkpPI+MfK5BFJ3c/D5AKaE572kTVhekLfGFCdwh+1bSVWc7FWC6yFN4m
x/WzQhN5W0d4yfcDsetESZBgC00Q2g/VFUt1cP6qq/CF/nb3UCc2CRgSCj2RTfbA
6ZBA7PkAcM1okfWRmNVGcenHezdBCDFuies9KbAqggPYfkuBH65S22sN32NezfIM
c27W6j+/+jslPsmtsnF7fjiL6bXOo/nIW5wSY2beK9BuYcETU9TtfsMlZamzZzqY
RnZuKASFx4QAU6E7GDvIIp5sLp3zig0zn268WxQ2oMzprcMkiW7HldOxOp5T6rKT
mhSKsUQT1j4mKCcNnW2lY6DMrRAcNsm6a8w+O4I9FgocDSDl1CDf5hjMW/F4BOzt
sFoVHRJEh7tEvzwuB+pMKzfb6zfIZqEYXdwAgqYIXPvvto5fl4K5qdFfdHlEYJzO
rjA2PywMewUNhcYPUzcBc0y2x2KayNCzKhUEYusCAwEAAaNTMFEwHQYDVR0OBBYE
FNhnDjfDiIp8puBF6PNBSjmVnoq3MB8GA1UdIwQYMBaAFNhnDjfDiIp8puBF6PNB
SjmVnoq3MA8GA1UdEwEB/wQFMAMBAf8wDQYJKoZIhvcNAQELBQADggIBAAUnc/rg
ZHK3Lh60ywst5UGoMwmbP4mRkgZqRr4o9b08BA3J9ZCV3+34rLlWB42wwpRwzQQ8
0YzrtvtS5adMyX57YGlOhd/efXb3DalnbjcYvgKhcXfSe4xMauIvN0pv/PtoORAQ
xF4KI1B6aBNU+jq57fudfLyDNPw5MNZeBjqdWY/dh6wzQ5Vpr/IRxsoCH80uY6W6
BoRnpkXNmd0zQirN1Jn+wp1F2qGxCka5rWZTmUTMUO8dQL57DRvwWfybRirPSwXT
kt+mvWpN2OcNMU5ubYSKdoyWeIeGHUa3xjEpwPPswxIbwKzDW+h76+b2metzQ4xp
7uo6ouHYANQast/wbZ2UPU6eDOL0TUQgUemAQPKBBWL4roPhOS3jCgwmInGdN5hx
eOX/N8jDVhJwPT7nwArM2WX9z1kyEuq5zXZyENjF+qSWcao+6t93VcHXN5pb8bW7
I1YGpaCK73PtfMlNGFq2By1re07cvccww/jKCrdvIr+b78yM17Iv4Vm1DgwQd+sI
gq7wOwFwUPHMQ5FzrFVFWFbLw5wHYdlIIZLVutvNTVbr/kDlYDapp3OlekJtkfjv
y1egPjp0iiKvElXNE6YQxp8hx1rNMJeHQAx6gz7XHn7F3KEFml6WfiHDK6vJ6JyK
lgCM4h+58khMHbn0utykgAw/i8bVAy0HLRuo
-----END CERTIFICATE-----
